Certificate:
    Data:
        Version: 1 (0x0)
        Serial Number: 1 (0x1)
        Signature Algorithm: sha1WithRSAEncryption
        Issuer: C=AU, ST=Some-State, O=PW, OU=Elektryczny, CN=Politechnika
        Validity
            Not Before: Jan 17 23:16:46 2020 GMT
            Not After : Jan 16 23:16:46 2021 GMT
        Subject: C=PL, ST=Mazowieckie, L=Ciechan\xC3\x83\xC2\xB3w, O=Laboratorium Ochrona Danych, OU=Projekt, CN=smolinm1
        Subject Public Key Info:
            Public Key Algorithm: rsaEncryption
                RSA Public-Key: (1024 bit)
                Modulus:
                    00:cb:43:16:d7:f0:73:fb:29:8f:3b:89:4c:bb:50:
                    1c:4c:74:e9:ff:00:9a:70:0d:10:5f:d7:ff:87:58:
                    1f:48:41:3b:b2:64:c0:4f:36:7e:23:fb:8b:13:23:
                    a2:31:bf:99:c3:22:71:69:38:b8:c9:15:2b:ca:e3:
                    93:9b:ed:14:3a:05:f2:34:20:be:42:db:6b:49:f2:
                    44:45:c2:20:d6:62:2b:3c:68:7a:f1:1e:9a:33:7e:
                    84:e0:c8:77:ca:b4:3d:b7:0e:e2:48:dc:f6:9d:eb:
                    8e:67:9c:41:a4:ab:a0:97:b4:67:76:ad:4d:a2:5f:
                    95:79:98:a8:0d:9c:e6:0a:85
                Exponent: 65537 (0x10001)
    Signature Algorithm: sha1WithRSAEncryption
         7a:0a:79:41:10:03:27:88:83:6a:98:53:ac:24:b6:1f:72:d6:
         05:c5:ae:ae:23:87:b4:9a:ac:e3:4d:4e:81:db:04:5b:da:ab:
         e4:2a:75:83:f9:af:f1:5b:68:01:82:ae:99:12:7b:6e:26:ed:
         64:1e:66:f4:87:56:86:d4:bf:47:ad:43:cc:d8:ab:24:d4:53:
         07:2b:5b:21:e0:c7:58:ba:fb:d4:77:c5:d2:ec:30:8d:a8:f9:
         7d:ec:a3:9d:6c:f7:a6:06:3a:14:a3:2d:1e:6c:e9:34:24:b1:
         29:57:5e:97:2d:35:69:a3:cb:21:cd:5d:a3:9e:f5:5b:d5:46:
         b4:50
-----BEGIN CERTIFICATE-----
MIICUTCCAboCAQEwDQYJKoZIhvcNAQEFBQAwXDELMAkGA1UEBhMCQVUxEzARBgNV
BAgMClNvbWUtU3RhdGUxCzAJBgNVBAoMAlBXMRQwEgYDVQQLDAtFbGVrdHJ5Y3pu
eTEVMBMGA1UEAwwMUG9saXRlY2huaWthMB4XDTIwMDExNzIzMTY0NloXDTIxMDEx
NjIzMTY0NlowgYUxCzAJBgNVBAYTAlBMMRQwEgYDVQQIDAtNYXpvd2llY2tpZTEV
MBMGA1UEBwwMQ2llY2hhbsODwrN3MSQwIgYDVQQKDBtMYWJvcmF0b3JpdW0gT2No
cm9uYSBEYW55Y2gxEDAOBgNVBAsMB1Byb2pla3QxETAPBgNVBAMMCHNtb2xpbm0x
MIGfMA0GCSqGSIb3DQEBAQUAA4GNADCBiQKBgQDLQxbX8HP7KY87iUy7UBxMdOn/
AJpwDRBf1/+HWB9IQTuyZMBPNn4j+4sTI6Ixv5nDInFpOLjJFSvK45Ob7RQ6BfI0
IL5C22tJ8kRFwiDWYis8aHrxHpozfoTgyHfKtD23DuJI3Pad645nnEGkq6CXtGd2
rU2iX5V5mKgNnOYKhQIDAQABMA0GCSqGSIb3DQEBBQUAA4GBAHoKeUEQAyeIg2qY
U6wkth9y1gXFrq4jh7SarONNToHbBFvaq+QqdYP5r/FbaAGCrpkSe24m7WQeZvSH
VobUv0etQ8zYqyTUUwcrWyHgx1i6+9R3xdLsMI2o+X3so51s96YGOhSjLR5s6TQk
sSlXXpctNWmjyyHNXaOe9VvVRrRQ
-----END CERTIFICATE-----
